target datalayout = "e-m:e-p270:32:32-p271:32:32-p272:64:64-i64:64-i128:128-f80:128-n8:16:32:64-S128"
target triple = "x86_64-pc-linux-gnu"

%struct.SDL_HIDAPI_DeviceDriver = type { ptr, i8, ptr, ptr, ptr, ptr, ptr, ptr, ptr, ptr, ptr, ptr, ptr, ptr, ptr, ptr, ptr, ptr, ptr }
%struct.SDL_AtomicInt = type { i32 }
%struct.SDL_HIDAPI_Device = type { ptr, ptr, ptr, ptr, i16, i16, i16, ptr, %struct.SDL_GUID, i32, i32, i32, i32, i16, i16, i8, i32, i32, i32, ptr, ptr, ptr, ptr, %struct.SDL_AtomicInt, i32, ptr, i8, i8, i8, ptr, i32, ptr, ptr }
%struct.SDL_GUID = type { [16 x i8] }
%struct.SDL_Joystick = type { i32, ptr, ptr, ptr, %struct.SDL_GUID, i16, i64, i8, i8, i32, ptr, i32, ptr, i32, ptr, i32, ptr, i32, ptr, i32, i32, ptr, i16, i16, i64, i64, i16, i16, i64, i64, i8, i8, i8, i64, i8, i32, i32, i32, i8, i32, ptr, i32, ptr, [3 x [3 x float]], i64, ptr, ptr, i32, i32, ptr }
%struct.joystick_hwdata = type { ptr }

@.str.33 = private unnamed_addr constant [35 x i8] c"SetLED failed, device disconnected\00", align 1

; Function Attrs: nounwind uwtable
define internal zeroext i1 @HIDAPI_GetJoystickDevice(ptr noundef %0, ptr noundef %1) #0 {
  %3 = alloca i1, align 1
  %4 = alloca ptr, align 8
  %5 = alloca ptr, align 8
  store ptr %0, ptr %4, align 8
  store ptr %1, ptr %5, align 8
  call void @SDL_AssertJoysticksLocked()
  %6 = load ptr, ptr %4, align 8
  %7 = icmp ne ptr %6, null
  br i1 %7, label %8, label %31

8:                                                ; preds = %2
  %9 = load ptr, ptr %4, align 8
  %10 = getelementptr inbounds nuw %struct.SDL_Joystick, ptr %9, i32 0, i32 46
  %11 = load ptr, ptr %10, align 8
  %12 = icmp ne ptr %11, null
  br i1 %12, label %13, label %31

13:                                               ; preds = %8
  %14 = load ptr, ptr %4, align 8
  %15 = getelementptr inbounds nuw %struct.SDL_Joystick, ptr %14, i32 0, i32 46
  %16 = load ptr, ptr %15, align 8
  %17 = getelementptr inbounds nuw %struct.joystick_hwdata, ptr %16, i32 0, i32 0
  %18 = load ptr, ptr %17, align 8
  %19 = load ptr, ptr %5, align 8
  store ptr %18, ptr %19, align 8
  %20 = load ptr, ptr %5, align 8
  %21 = load ptr, ptr %20, align 8
  %22 = call zeroext i1 @SDL_ObjectValid(ptr noundef %21, i32 noundef 9)
  br i1 %22, label %23, label %30

23:                                               ; preds = %13
  %24 = load ptr, ptr %5, align 8
  %25 = load ptr, ptr %24, align 8
  %26 = getelementptr inbounds nuw %struct.SDL_HIDAPI_Device, ptr %25, i32 0, i32 19
  %27 = load ptr, ptr %26, align 8
  %28 = icmp ne ptr %27, null
  br i1 %28, label %29, label %30

29:                                               ; preds = %23
  store i1 true, ptr %3, align 1
  br label %32

30:                                               ; preds = %23, %13
  br label %31

31:                                               ; preds = %30, %8, %2
  store i1 false, ptr %3, align 1
  br label %32

32:                                               ; preds = %31, %29
  %33 = load i1, ptr %3, align 1
  ret i1 %33
}

; Function Attrs: nounwind uwtable
define internal zeroext i1 @HIDAPI_JoystickSetLED(ptr noundef %0, i8 noundef zeroext %1, i8 noundef zeroext %2, i8 noundef zeroext %3) #0 {
  %5 = alloca ptr, align 8
  %6 = alloca i8, align 1
  %7 = alloca i8, align 1
  %8 = alloca i8, align 1
  %9 = alloca i8, align 1
  %10 = alloca ptr, align 8
  store ptr %0, ptr %5, align 8
  store i8 %1, ptr %6, align 1
  store i8 %2, ptr %7, align 1
  store i8 %3, ptr %8, align 1
  call void @llvm.lifetime.start.p0(i64 1, ptr %9) #7
  call void @llvm.lifetime.start.p0(i64 8, ptr %10) #7
  store ptr null, ptr %10, align 8
  %11 = load ptr, ptr %5, align 8
  %12 = call zeroext i1 @HIDAPI_GetJoystickDevice(ptr noundef %11, ptr noundef %10)
  br i1 %12, label %13, label %26

13:                                               ; preds = %4
  %14 = load ptr, ptr %10, align 8
  %15 = getelementptr inbounds nuw %struct.SDL_HIDAPI_Device, ptr %14, i32 0, i32 19
  %16 = load ptr, ptr %15, align 8
  %17 = getelementptr inbounds nuw %struct.SDL_HIDAPI_DeviceDriver, ptr %16, i32 0, i32 14
  %18 = load ptr, ptr %17, align 8
  %19 = load ptr, ptr %10, align 8
  %20 = load ptr, ptr %5, align 8
  %21 = load i8, ptr %6, align 1
  %22 = load i8, ptr %7, align 1
  %23 = load i8, ptr %8, align 1
  %24 = call zeroext i1 %18(ptr noundef %19, ptr noundef %20, i8 noundef zeroext %21, i8 noundef zeroext %22, i8 noundef zeroext %23)
  %25 = zext i1 %24 to i8
  store i8 %25, ptr %9, align 1
  br label %29

26:                                               ; preds = %4
  %27 = call zeroext i1 (ptr, ...) @SDL_SetError_REAL(ptr noundef @.str.33)
  %28 = zext i1 %27 to i8
  store i8 %28, ptr %9, align 1
  br label %29

29:                                               ; preds = %26, %13
  %30 = load i8, ptr %9, align 1, !range !6, !noundef !7
  %31 = trunc i8 %30 to i1
  call void @llvm.lifetime.end.p0(i64 8, ptr %10) #7
  call void @llvm.lifetime.end.p0(i64 1, ptr %9) #7
  ret i1 %31
}