; Function Attrs: nounwind uwtable
define internal zeroext i1 @HIDAPI_JoystickSetLED(ptr noundef %0, i8 noundef zeroext %1, i8 noundef zeroext %2, i8 noundef zeroext %3) #0 {
  tail call void @SDL_AssertJoysticksLocked() #9
  %.not.i = icmp eq ptr %0, null
  br i1 %.not.i, label %17, label %5

5:                                                ; preds = %4
  %6 = getelementptr inbounds nuw i8, ptr %0, i64 328
  %7 = load ptr, ptr %6, align 8
  %.not9.i = icmp eq ptr %7, null
  br i1 %.not9.i, label %17, label %8

8:                                                ; preds = %5
  %9 = load ptr, ptr %7, align 8
  %10 = tail call zeroext i1 @SDL_ObjectValid(ptr noundef %9, i32 noundef 9) #9
  br i1 %10, label %11, label %17

11:                                               ; preds = %8
  %12 = getelementptr inbounds nuw i8, ptr %9, i64 104
  %13 = load ptr, ptr %12, align 8
  %.not10.i = icmp eq ptr %13, null
  br i1 %.not10.i, label %17, label %HIDAPI_GetJoystickDevice.exit

HIDAPI_GetJoystickDevice.exit:                    ; preds = %11
  %14 = getelementptr inbounds nuw i8, ptr %13, i64 112
  %15 = load ptr, ptr %14, align 8
  %16 = tail call zeroext i1 %15(ptr noundef nonnull %9, ptr noundef nonnull %0, i8 noundef zeroext %1, i8 noundef zeroext %2, i8 noundef zeroext %3) #9
  br label %19

17:                                               ; preds = %11, %8, %5, %4
  %18 = tail call zeroext i1 (ptr, ...) @SDL_SetError_REAL(ptr noundef nonnull @.str.33) #9
  br label %19

19:                                               ; preds = %17, %HIDAPI_GetJoystickDevice.exit
  %.0.in = phi i1 [ %16, %HIDAPI_GetJoystickDevice.exit ], [ %18, %17 ]
  ret i1 %.0.in
}